target datalayout = "e-m:e-p270:32:32-p271:32:32-p272:64:64-i64:64-i128:128-f80:128-n8:16:32:64-S128"
target triple = "x86_64-pc-linux-gnu"

%struct.H5B2_test_ctx_t = type { i8 }
%struct.H5B2_test_rec_t = type { i64, i64 }

@H5B2_init_g = external global i8, align 1
@H5_libterm_g = external global i8, align 1

; Function Attrs: nounwind uwtable
define internal i32 @H5B2__test2_decode(ptr noundef %0, ptr noundef %1, ptr noundef %2) #0 {
  %4 = alloca ptr, align 8
  %5 = alloca ptr, align 8
  %6 = alloca ptr, align 8
  %7 = alloca ptr, align 8
  %8 = alloca i64, align 8
  %9 = alloca i64, align 8
  store ptr %0, ptr %4, align 8, !tbaa !23
  store ptr %1, ptr %5, align 8, !tbaa !3
  store ptr %2, ptr %6, align 8, !tbaa !3
  call void @llvm.lifetime.start.p0(i64 8, ptr %7) #6
  %10 = load ptr, ptr %6, align 8, !tbaa !3
  store ptr %10, ptr %7, align 8, !tbaa !13
  %11 = load i8, ptr @H5B2_init_g, align 1, !tbaa !9, !range !11, !noundef !12
  %12 = trunc i8 %11 to i1
  br i1 %12, label %17, label %13

13:                                               ; preds = %3
  %14 = load i8, ptr @H5_libterm_g, align 1, !tbaa !9, !range !11, !noundef !12
  %15 = trunc i8 %14 to i1
  %16 = xor i1 %15, true
  br label %17

17:                                               ; preds = %13, %3
  %18 = phi i1 [ true, %3 ], [ %16, %13 ]
  %19 = xor i1 %18, true
  %20 = xor i1 %19, true
  %21 = zext i1 %20 to i32
  %22 = sext i32 %21 to i64
  %23 = call i64 @llvm.expect.i64(i64 %22, i64 1)
  %24 = icmp ne i64 %23, 0
  br i1 %24, label %25, label %254

25:                                               ; preds = %17
  br label %26

26:                                               ; preds = %25
  %27 = load ptr, ptr %7, align 8, !tbaa !13
  %28 = getelementptr inbounds nuw %struct.H5B2_test_ctx_t, ptr %27, i32 0, i32 0
  %29 = load i8, ptr %28, align 1, !tbaa !17
  %30 = zext i8 %29 to i32
  switch i32 %30, label %136 [
    i32 4, label %31
    i32 8, label %80
    i32 2, label %109
  ]

31:                                               ; preds = %26
  br label %32

32:                                               ; preds = %31
  %33 = load ptr, ptr %4, align 8, !tbaa !23
  %34 = load i8, ptr %33, align 1, !tbaa !25
  %35 = zext i8 %34 to i32
  %36 = and i32 %35, 255
  %37 = zext i32 %36 to i64
  %38 = load ptr, ptr %5, align 8, !tbaa !3
  %39 = getelementptr inbounds nuw %struct.H5B2_test_rec_t, ptr %38, i32 0, i32 0
  store i64 %37, ptr %39, align 8, !tbaa !33
  %40 = load ptr, ptr %4, align 8, !tbaa !23
  %41 = getelementptr inbounds nuw i8, ptr %40, i32 1
  store ptr %41, ptr %4, align 8, !tbaa !23
  %42 = load ptr, ptr %4, align 8, !tbaa !23
  %43 = load i8, ptr %42, align 1, !tbaa !25
  %44 = zext i8 %43 to i32
  %45 = and i32 %44, 255
  %46 = shl i32 %45, 8
  %47 = zext i32 %46 to i64
  %48 = load ptr, ptr %5, align 8, !tbaa !3
  %49 = getelementptr inbounds nuw %struct.H5B2_test_rec_t, ptr %48, i32 0, i32 0
  %50 = load i64, ptr %49, align 8, !tbaa !33
  %51 = or i64 %50, %47
  store i64 %51, ptr %49, align 8, !tbaa !33
  %52 = load ptr, ptr %4, align 8, !tbaa !23
  %53 = getelementptr inbounds nuw i8, ptr %52, i32 1
  store ptr %53, ptr %4, align 8, !tbaa !23
  %54 = load ptr, ptr %4, align 8, !tbaa !23
  %55 = load i8, ptr %54, align 1, !tbaa !25
  %56 = zext i8 %55 to i32
  %57 = and i32 %56, 255
  %58 = shl i32 %57, 16
  %59 = zext i32 %58 to i64
  %60 = load ptr, ptr %5, align 8, !tbaa !3
  %61 = getelementptr inbounds nuw %struct.H5B2_test_rec_t, ptr %60, i32 0, i32 0
  %62 = load i64, ptr %61, align 8, !tbaa !33
  %63 = or i64 %62, %59
  store i64 %63, ptr %61, align 8, !tbaa !33
  %64 = load ptr, ptr %4, align 8, !tbaa !23
  %65 = getelementptr inbounds nuw i8, ptr %64, i32 1
  store ptr %65, ptr %4, align 8, !tbaa !23
  %66 = load ptr, ptr %4, align 8, !tbaa !23
  %67 = load i8, ptr %66, align 1, !tbaa !25
  %68 = zext i8 %67 to i32
  %69 = and i32 %68, 255
  %70 = shl i32 %69, 24
  %71 = zext i32 %70 to i64
  %72 = load ptr, ptr %5, align 8, !tbaa !3
  %73 = getelementptr inbounds nuw %struct.H5B2_test_rec_t, ptr %72, i32 0, i32 0
  %74 = load i64, ptr %73, align 8, !tbaa !33
  %75 = or i64 %74, %71
  store i64 %75, ptr %73, align 8, !tbaa !33
  %76 = load ptr, ptr %4, align 8, !tbaa !23
  %77 = getelementptr inbounds nuw i8, ptr %76, i32 1
  store ptr %77, ptr %4, align 8, !tbaa !23
  br label %78

78:                                               ; preds = %32
  br label %79

79:                                               ; preds = %78
  br label %137

80:                                               ; preds = %26
  br label %81

81:                                               ; preds = %80
  call void @llvm.lifetime.start.p0(i64 8, ptr %8) #6
  %82 = load ptr, ptr %5, align 8, !tbaa !3
  %83 = getelementptr inbounds nuw %struct.H5B2_test_rec_t, ptr %82, i32 0, i32 0
  store i64 0, ptr %83, align 8, !tbaa !33
  %84 = load ptr, ptr %4, align 8, !tbaa !23
  %85 = getelementptr inbounds i8, ptr %84, i64 8
  store ptr %85, ptr %4, align 8, !tbaa !23
  store i64 0, ptr %8, align 8, !tbaa !15
  br label %86

86:                                               ; preds = %101, %81
  %87 = load i64, ptr %8, align 8, !tbaa !15
  %88 = icmp ult i64 %87, 8
  br i1 %88, label %89, label %104

89:                                               ; preds = %86
  %90 = load ptr, ptr %5, align 8, !tbaa !3
  %91 = getelementptr inbounds nuw %struct.H5B2_test_rec_t, ptr %90, i32 0, i32 0
  %92 = load i64, ptr %91, align 8, !tbaa !33
  %93 = shl i64 %92, 8
  %94 = load ptr, ptr %4, align 8, !tbaa !23
  %95 = getelementptr inbounds i8, ptr %94, i32 -1
  store ptr %95, ptr %4, align 8, !tbaa !23
  %96 = load i8, ptr %95, align 1, !tbaa !25
  %97 = zext i8 %96 to i64
  %98 = or i64 %93, %97
  %99 = load ptr, ptr %5, align 8, !tbaa !3
  %100 = getelementptr inbounds nuw %struct.H5B2_test_rec_t, ptr %99, i32 0, i32 0
  store i64 %98, ptr %100, align 8, !tbaa !33
  br label %101

101:                                              ; preds = %89
  %102 = load i64, ptr %8, align 8, !tbaa !15
  %103 = add i64 %102, 1
  store i64 %103, ptr %8, align 8, !tbaa !15
  br label %86, !llvm.loop !40

104:                                              ; preds = %86
  %105 = load ptr, ptr %4, align 8, !tbaa !23
  %106 = getelementptr inbounds i8, ptr %105, i64 8
  store ptr %106, ptr %4, align 8, !tbaa !23
  call void @llvm.lifetime.end.p0(i64 8, ptr %8) #6
  br label %107

107:                                              ; preds = %104
  br label %108

108:                                              ; preds = %107
  br label %137

109:                                              ; preds = %26
  br label %110

110:                                              ; preds = %109
  %111 = load ptr, ptr %4, align 8, !tbaa !23
  %112 = load i8, ptr %111, align 1, !tbaa !25
  %113 = zext i8 %112 to i32
  %114 = and i32 %113, 255
  %115 = trunc i32 %114 to i16
  %116 = zext i16 %115 to i64
  %117 = load ptr, ptr %5, align 8, !tbaa !3
  %118 = getelementptr inbounds nuw %struct.H5B2_test_rec_t, ptr %117, i32 0, i32 0
  store i64 %116, ptr %118, align 8, !tbaa !33
  %119 = load ptr, ptr %4, align 8, !tbaa !23
  %120 = getelementptr inbounds nuw i8, ptr %119, i32 1
  store ptr %120, ptr %4, align 8, !tbaa !23
  %121 = load ptr, ptr %4, align 8, !tbaa !23
  %122 = load i8, ptr %121, align 1, !tbaa !25
  %123 = zext i8 %122 to i32
  %124 = and i32 %123, 255
  %125 = shl i32 %124, 8
  %126 = trunc i32 %125 to i16
  %127 = zext i16 %126 to i64
  %128 = load ptr, ptr %5, align 8, !tbaa !3
  %129 = getelementptr inbounds nuw %struct.H5B2_test_rec_t, ptr %128, i32 0, i32 0
  %130 = load i64, ptr %129, align 8, !tbaa !33
  %131 = or i64 %130, %127
  store i64 %131, ptr %129, align 8, !tbaa !33
  %132 = load ptr, ptr %4, align 8, !tbaa !23
  %133 = getelementptr inbounds nuw i8, ptr %132, i32 1
  store ptr %133, ptr %4, align 8, !tbaa !23
  br label %134

134:                                              ; preds = %110
  br label %135

135:                                              ; preds = %134
  br label %137

136:                                              ; preds = %26
  br label %137

137:                                              ; preds = %136, %135, %108, %79
  br label %138

138:                                              ; preds = %137
  br label %139

139:                                              ; preds = %138
  br label %140

140:                                              ; preds = %139
  %141 = load ptr, ptr %7, align 8, !tbaa !13
  %142 = getelementptr inbounds nuw %struct.H5B2_test_ctx_t, ptr %141, i32 0, i32 0
  %143 = load i8, ptr %142, align 1, !tbaa !17
  %144 = zext i8 %143 to i32
  switch i32 %144, label %250 [
    i32 4, label %145
    i32 8, label %194
    i32 2, label %223
  ]

145:                                              ; preds = %140
  br label %146

146:                                              ; preds = %145
  %147 = load ptr, ptr %4, align 8, !tbaa !23
  %148 = load i8, ptr %147, align 1, !tbaa !25
  %149 = zext i8 %148 to i32
  %150 = and i32 %149, 255
  %151 = zext i32 %150 to i64
  %152 = load ptr, ptr %5, align 8, !tbaa !3
  %153 = getelementptr inbounds nuw %struct.H5B2_test_rec_t, ptr %152, i32 0, i32 1
  store i64 %151, ptr %153, align 8, !tbaa !37
  %154 = load ptr, ptr %4, align 8, !tbaa !23
  %155 = getelementptr inbounds nuw i8, ptr %154, i32 1
  store ptr %155, ptr %4, align 8, !tbaa !23
  %156 = load ptr, ptr %4, align 8, !tbaa !23
  %157 = load i8, ptr %156, align 1, !tbaa !25
  %158 = zext i8 %157 to i32
  %159 = and i32 %158, 255
  %160 = shl i32 %159, 8
  %161 = zext i32 %160 to i64
  %162 = load ptr, ptr %5, align 8, !tbaa !3
  %163 = getelementptr inbounds nuw %struct.H5B2_test_rec_t, ptr %162, i32 0, i32 1
  %164 = load i64, ptr %163, align 8, !tbaa !37
  %165 = or i64 %164, %161
  store i64 %165, ptr %163, align 8, !tbaa !37
  %166 = load ptr, ptr %4, align 8, !tbaa !23
  %167 = getelementptr inbounds nuw i8, ptr %166, i32 1
  store ptr %167, ptr %4, align 8, !tbaa !23
  %168 = load ptr, ptr %4, align 8, !tbaa !23
  %169 = load i8, ptr %168, align 1, !tbaa !25
  %170 = zext i8 %169 to i32
  %171 = and i32 %170, 255
  %172 = shl i32 %171, 16
  %173 = zext i32 %172 to i64
  %174 = load ptr, ptr %5, align 8, !tbaa !3
  %175 = getelementptr inbounds nuw %struct.H5B2_test_rec_t, ptr %174, i32 0, i32 1
  %176 = load i64, ptr %175, align 8, !tbaa !37
  %177 = or i64 %176, %173
  store i64 %177, ptr %175, align 8, !tbaa !37
  %178 = load ptr, ptr %4, align 8, !tbaa !23
  %179 = getelementptr inbounds nuw i8, ptr %178, i32 1
  store ptr %179, ptr %4, align 8, !tbaa !23
  %180 = load ptr, ptr %4, align 8, !tbaa !23
  %181 = load i8, ptr %180, align 1, !tbaa !25
  %182 = zext i8 %181 to i32
  %183 = and i32 %182, 255
  %184 = shl i32 %183, 24
  %185 = zext i32 %184 to i64
  %186 = load ptr, ptr %5, align 8, !tbaa !3
  %187 = getelementptr inbounds nuw %struct.H5B2_test_rec_t, ptr %186, i32 0, i32 1
  %188 = load i64, ptr %187, align 8, !tbaa !37
  %189 = or i64 %188, %185
  store i64 %189, ptr %187, align 8, !tbaa !37
  %190 = load ptr, ptr %4, align 8, !tbaa !23
  %191 = getelementptr inbounds nuw i8, ptr %190, i32 1
  store ptr %191, ptr %4, align 8, !tbaa !23
  br label %192

192:                                              ; preds = %146
  br label %193

193:                                              ; preds = %192
  br label %251

194:                                              ; preds = %140
  br label %195

195:                                              ; preds = %194
  call void @llvm.lifetime.start.p0(i64 8, ptr %9) #6
  %196 = load ptr, ptr %5, align 8, !tbaa !3
  %197 = getelementptr inbounds nuw %struct.H5B2_test_rec_t, ptr %196, i32 0, i32 1
  store i64 0, ptr %197, align 8, !tbaa !37
  %198 = load ptr, ptr %4, align 8, !tbaa !23
  %199 = getelementptr inbounds i8, ptr %198, i64 8
  store ptr %199, ptr %4, align 8, !tbaa !23
  store i64 0, ptr %9, align 8, !tbaa !15
  br label %200

200:                                              ; preds = %215, %195
  %201 = load i64, ptr %9, align 8, !tbaa !15
  %202 = icmp ult i64 %201, 8
  br i1 %202, label %203, label %218

203:                                              ; preds = %200
  %204 = load ptr, ptr %5, align 8, !tbaa !3
  %205 = getelementptr inbounds nuw %struct.H5B2_test_rec_t, ptr %204, i32 0, i32 1
  %206 = load i64, ptr %205, align 8, !tbaa !37
  %207 = shl i64 %206, 8
  %208 = load ptr, ptr %4, align 8, !tbaa !23
  %209 = getelementptr inbounds i8, ptr %208, i32 -1
  store ptr %209, ptr %4, align 8, !tbaa !23
  %210 = load i8, ptr %209, align 1, !tbaa !25
  %211 = zext i8 %210 to i64
  %212 = or i64 %207, %211
  %213 = load ptr, ptr %5, align 8, !tbaa !3
  %214 = getelementptr inbounds nuw %struct.H5B2_test_rec_t, ptr %213, i32 0, i32 1
  store i64 %212, ptr %214, align 8, !tbaa !37
  br label %215

215:                                              ; preds = %203
  %216 = load i64, ptr %9, align 8, !tbaa !15
  %217 = add i64 %216, 1
  store i64 %217, ptr %9, align 8, !tbaa !15
  br label %200, !llvm.loop !41

218:                                              ; preds = %200
  %219 = load ptr, ptr %4, align 8, !tbaa !23
  %220 = getelementptr inbounds i8, ptr %219, i64 8
  store ptr %220, ptr %4, align 8, !tbaa !23
  call void @llvm.lifetime.end.p0(i64 8, ptr %9) #6
  br label %221

221:                                              ; preds = %218
  br label %222

222:                                              ; preds = %221
  br label %251

223:                                              ; preds = %140
  br label %224

224:                                              ; preds = %223
  %225 = load ptr, ptr %4, align 8, !tbaa !23
  %226 = load i8, ptr %225, align 1, !tbaa !25
  %227 = zext i8 %226 to i32
  %228 = and i32 %227, 255
  %229 = trunc i32 %228 to i16
  %230 = zext i16 %229 to i64
  %231 = load ptr, ptr %5, align 8, !tbaa !3
  %232 = getelementptr inbounds nuw %struct.H5B2_test_rec_t, ptr %231, i32 0, i32 1
  store i64 %230, ptr %232, align 8, !tbaa !37
  %233 = load ptr, ptr %4, align 8, !tbaa !23
  %234 = getelementptr inbounds nuw i8, ptr %233, i32 1
  store ptr %234, ptr %4, align 8, !tbaa !23
  %235 = load ptr, ptr %4, align 8, !tbaa !23
  %236 = load i8, ptr %235, align 1, !tbaa !25
  %237 = zext i8 %236 to i32
  %238 = and i32 %237, 255
  %239 = shl i32 %238, 8
  %240 = trunc i32 %239 to i16
  %241 = zext i16 %240 to i64
  %242 = load ptr, ptr %5, align 8, !tbaa !3
  %243 = getelementptr inbounds nuw %struct.H5B2_test_rec_t, ptr %242, i32 0, i32 1
  %244 = load i64, ptr %243, align 8, !tbaa !37
  %245 = or i64 %244, %241
  store i64 %245, ptr %243, align 8, !tbaa !37
  %246 = load ptr, ptr %4, align 8, !tbaa !23
  %247 = getelementptr inbounds nuw i8, ptr %246, i32 1
  store ptr %247, ptr %4, align 8, !tbaa !23
  br label %248

248:                                              ; preds = %224
  br label %249

249:                                              ; preds = %248
  br label %251

250:                                              ; preds = %140
  br label %251

251:                                              ; preds = %250, %249, %222, %193
  br label %252

252:                                              ; preds = %251
  br label %253

253:                                              ; preds = %252
  br label %254

254:                                              ; preds = %253, %17
  call void @llvm.lifetime.end.p0(i64 8, ptr %7) #6
  ret i32 0
}