; Function Attrs: nofree norecurse nosync nounwind memory(read, argmem: readwrite, inaccessiblemem: none) uwtable
define internal noundef i32 @H5B2__test2_decode(ptr noundef readonly captures(none) %0, ptr noundef writeonly captures(none) %1, ptr noundef readonly captures(none) %2) #2 {
  %4 = load i8, ptr @H5B2_init_g, align 1, !tbaa !3, !range !7, !noundef !8
  %5 = trunc nuw i8 %4 to i1
  %6 = load i8, ptr @H5_libterm_g, align 1, !range !7
  %7 = trunc nuw i8 %6 to i1
  %8 = xor i1 %7, true
  %9 = select i1 %5, i1 true, i1 %8
  br i1 %9, label %10, label %.loopexit, !prof !9

10:                                               ; preds = %3
  %11 = load i8, ptr %2, align 1, !tbaa !12
  switch i8 %11, label %50 [
    i8 4, label %.thread
    i8 8, label %30
    i8 2, label %.thread58
  ]

.thread:                                          ; preds = %10
  %12 = load i8, ptr %0, align 1, !tbaa !16
  %13 = zext i8 %12 to i64
  store i64 %13, ptr %1, align 8, !tbaa !21
  %14 = getelementptr inbounds nuw i8, ptr %0, i64 1
  %15 = load i8, ptr %14, align 1, !tbaa !16
  %16 = zext i8 %15 to i64
  %17 = shl nuw nsw i64 %16, 8
  %18 = or disjoint i64 %17, %13
  store i64 %18, ptr %1, align 8, !tbaa !21
  %19 = getelementptr inbounds nuw i8, ptr %0, i64 2
  %20 = load i8, ptr %19, align 1, !tbaa !16
  %21 = zext i8 %20 to i64
  %22 = shl nuw nsw i64 %21, 16
  %23 = or disjoint i64 %22, %18
  store i64 %23, ptr %1, align 8, !tbaa !21
  %24 = getelementptr inbounds nuw i8, ptr %0, i64 3
  %25 = load i8, ptr %24, align 1, !tbaa !16
  %26 = zext i8 %25 to i64
  %27 = shl nuw nsw i64 %26, 24
  %28 = or disjoint i64 %27, %23
  store i64 %28, ptr %1, align 8, !tbaa !21
  %29 = getelementptr inbounds nuw i8, ptr %0, i64 4
  br label %51

30:                                               ; preds = %10
  store i64 0, ptr %1, align 8, !tbaa !21
  %31 = getelementptr inbounds nuw i8, ptr %0, i64 8
  br label %32

32:                                               ; preds = %30, %32
  %.05462 = phi i64 [ 0, %30 ], [ %39, %32 ]
  %.05561 = phi ptr [ %31, %30 ], [ %35, %32 ]
  %33 = phi i64 [ 0, %30 ], [ %38, %32 ]
  %34 = shl i64 %33, 8
  %35 = getelementptr inbounds i8, ptr %.05561, i64 -1
  %36 = load i8, ptr %35, align 1, !tbaa !16
  %37 = zext i8 %36 to i64
  %38 = or disjoint i64 %34, %37
  store i64 %38, ptr %1, align 8, !tbaa !21
  %39 = add nuw nsw i64 %.05462, 1
  %exitcond.not = icmp eq i64 %39, 8
  br i1 %exitcond.not, label %40, label %32, !llvm.loop !26

40:                                               ; preds = %32
  %41 = getelementptr inbounds nuw i8, ptr %.05561, i64 7
  br label %50

.thread58:                                        ; preds = %10
  %42 = load i8, ptr %0, align 1, !tbaa !16
  %43 = zext i8 %42 to i64
  store i64 %43, ptr %1, align 8, !tbaa !21
  %44 = getelementptr inbounds nuw i8, ptr %0, i64 1
  %45 = load i8, ptr %44, align 1, !tbaa !16
  %46 = zext i8 %45 to i64
  %47 = shl nuw nsw i64 %46, 8
  %48 = or disjoint i64 %47, %43
  store i64 %48, ptr %1, align 8, !tbaa !21
  %49 = getelementptr inbounds nuw i8, ptr %0, i64 2
  br label %81

50:                                               ; preds = %40, %10
  %.1 = phi ptr [ %0, %10 ], [ %41, %40 ]
  switch i8 %11, label %.loopexit [
    i8 4, label %51
    i8 8, label %70
    i8 2, label %81
  ]

51:                                               ; preds = %.thread, %50
  %.157 = phi ptr [ %29, %.thread ], [ %.1, %50 ]
  %52 = load i8, ptr %.157, align 1, !tbaa !16
  %53 = zext i8 %52 to i64
  %54 = getelementptr inbounds nuw i8, ptr %1, i64 8
  store i64 %53, ptr %54, align 8, !tbaa !24
  %55 = getelementptr inbounds nuw i8, ptr %.157, i64 1
  %56 = load i8, ptr %55, align 1, !tbaa !16
  %57 = zext i8 %56 to i64
  %58 = shl nuw nsw i64 %57, 8
  %59 = or disjoint i64 %58, %53
  store i64 %59, ptr %54, align 8, !tbaa !24
  %60 = getelementptr inbounds nuw i8, ptr %.157, i64 2
  %61 = load i8, ptr %60, align 1, !tbaa !16
  %62 = zext i8 %61 to i64
  %63 = shl nuw nsw i64 %62, 16
  %64 = or disjoint i64 %63, %59
  store i64 %64, ptr %54, align 8, !tbaa !24
  %65 = getelementptr inbounds nuw i8, ptr %.157, i64 3
  %66 = load i8, ptr %65, align 1, !tbaa !16
  %67 = zext i8 %66 to i64
  %68 = shl nuw nsw i64 %67, 24
  %69 = or disjoint i64 %68, %64
  store i64 %69, ptr %54, align 8, !tbaa !24
  br label %.loopexit

70:                                               ; preds = %50
  %71 = getelementptr inbounds nuw i8, ptr %1, i64 8
  store i64 0, ptr %71, align 8, !tbaa !24
  %72 = getelementptr inbounds nuw i8, ptr %.1, i64 8
  br label %73

73:                                               ; preds = %70, %73
  %.065 = phi i64 [ 0, %70 ], [ %80, %73 ]
  %.264 = phi ptr [ %72, %70 ], [ %76, %73 ]
  %74 = phi i64 [ 0, %70 ], [ %79, %73 ]
  %75 = shl i64 %74, 8
  %76 = getelementptr inbounds i8, ptr %.264, i64 -1
  %77 = load i8, ptr %76, align 1, !tbaa !16
  %78 = zext i8 %77 to i64
  %79 = or disjoint i64 %75, %78
  store i64 %79, ptr %71, align 8, !tbaa !24
  %80 = add nuw nsw i64 %.065, 1
  %exitcond66.not = icmp eq i64 %80, 8
  br i1 %exitcond66.not, label %.loopexit, label %73, !llvm.loop !27

81:                                               ; preds = %.thread58, %50
  %.160 = phi ptr [ %49, %.thread58 ], [ %.1, %50 ]
  %82 = load i8, ptr %.160, align 1, !tbaa !16
  %83 = zext i8 %82 to i64
  %84 = getelementptr inbounds nuw i8, ptr %1, i64 8
  store i64 %83, ptr %84, align 8, !tbaa !24
  %85 = getelementptr inbounds nuw i8, ptr %.160, i64 1
  %86 = load i8, ptr %85, align 1, !tbaa !16
  %87 = zext i8 %86 to i64
  %88 = shl nuw nsw i64 %87, 8
  %89 = or disjoint i64 %88, %83
  store i64 %89, ptr %84, align 8, !tbaa !24
  br label %.loopexit

.loopexit:                                        ; preds = %73, %51, %81, %50, %3
  ret i32 0
}